; Function Attrs: nounwind uwtable
define internal ptr @hashGetExpireMeta(ptr noundef readonly captures(none) %0) #1 {
  %2 = load i32, ptr %0, align 8
  %3 = lshr i32 %2, 4
  %4 = and i32 %3, 15
  switch i32 %4, label %12 [
    i32 12, label %5
    i32 2, label %8
  ]

5:                                                ; preds = %1
  %6 = getelementptr inbounds nuw i8, ptr %0, i64 8
  %7 = load ptr, ptr %6, align 8, !tbaa !10
  br label %13

8:                                                ; preds = %1
  %9 = getelementptr inbounds nuw i8, ptr %0, i64 8
  %10 = load ptr, ptr %9, align 8, !tbaa !10
  %11 = getelementptr inbounds nuw i8, ptr %10, i64 56
  br label %13

12:                                               ; preds = %1
  tail call void (ptr, i32, ptr, ...) @_serverPanic(ptr noundef nonnull @.str.2, i32 noundef 3540, ptr noundef nonnull @.str.6, i32 noundef %4) #16
  tail call void @abort() #17
  unreachable

13:                                               ; preds = %8, %5
  %.0 = phi ptr [ %7, %5 ], [ %11, %8 ]
  ret ptr %.0
}